Certificate:
    Data:
        Version: 3 (0x2)
        Serial Number: 3 (0x3)
    Signature Algorithm: sha256WithRSAEncryption
        Issuer: C=CN, O=X CA, OU=www.xiexianbin.cn, CN=X TLS CA 1C1
        Validity
            Not Before: Mar  6 09:02:40 2022 GMT
            Not After : Jun  8 09:02:40 2024 GMT
        Subject: C=CN, CN=www.xiexianbin.cn
        Subject Public Key Info:
            Public Key Algorithm: rsaEncryption
                Public-Key: (4096 bit)
                Modulus:
                    00:b2:bd:be:7a:ed:30:ce:cf:8d:8c:9c:1d:53:38:
                    10:00:7c:29:e8:36:b3:7f:55:de:34:60:dc:fb:18:
                    2a:10:7f:9e:8f:0b:9a:90:a8:4c:cb:a0:ae:37:41:
                    ac:25:73:25:43:7b:88:3f:33:77:80:90:bd:df:e5:
                    59:da:63:3d:54:cf:fb:8c:7c:48:9c:c8:96:a0:58:
                    a2:4c:b9:f6:bd:b3:6f:7f:80:53:38:8f:b0:2d:86:
                    14:79:c8:58:5b:46:f9:2b:b3:5a:b5:3b:a5:60:9a:
                    67:42:cd:e7:1a:af:ce:fb:b2:e4:e4:ff:e2:f7:25:
                    2d:70:7d:47:9a:46:f7:49:e8:79:66:58:1e:48:06:
                    b8:2a:8d:30:02:1b:7c:4c:70:50:a0:ee:19:ad:3f:
                    83:31:bf:cb:0f:ef:e1:b4:44:69:17:28:65:93:89:
                    82:2c:0f:72:57:ea:c7:76:a0:72:95:02:e9:67:24:
                    d5:65:90:9f:52:84:35:d9:4a:1b:f0:2d:ca:13:01:
                    c6:3a:86:59:45:4f:a9:18:76:17:cb:d6:6e:70:c5:
                    ff:d9:b5:b0:f5:26:23:57:2c:f0:50:cc:b7:e0:9e:
                    7b:f3:f2:cc:91:48:92:86:0a:6d:4d:c3:c5:e2:9a:
                    b6:df:b1:e4:19:1c:4d:75:22:9c:8e:3a:a5:6c:b6:
                    e3:d9:48:e0:3f:9f:d4:82:49:70:4f:12:a8:51:3e:
                    a3:10:71:3a:83:e2:c3:9d:0e:11:b2:a0:41:e3:ef:
                    20:82:41:c6:a9:92:a5:4a:b8:d3:0c:6d:c3:9d:08:
                    db:55:90:ef:ae:6f:7e:d7:4c:95:9d:51:d4:f5:15:
                    15:e6:90:04:65:cb:8a:9f:62:99:e6:cb:82:df:e0:
                    2e:90:d7:7b:2c:44:c8:0b:43:b1:40:34:04:46:6a:
                    d9:07:de:1f:b5:47:e6:cf:5a:3e:6c:dc:0e:db:18:
                    07:72:6c:3a:4e:a5:9c:0e:82:f1:46:f5:8b:bb:ff:
                    9c:c4:b1:74:28:46:58:4a:34:93:bc:9b:b8:1a:78:
                    4f:f8:9a:3e:8f:49:9c:93:a1:ac:6f:97:ee:32:e6:
                    3d:a7:69:5b:cf:f5:ce:57:f8:b9:46:9d:f3:d7:71:
                    91:dc:c2:bf:2e:6a:46:7f:7b:33:b2:14:f5:29:cc:
                    2c:7b:64:b4:35:cc:a5:41:3a:71:8d:dc:cd:85:cd:
                    18:46:d8:96:37:99:bb:dd:2c:20:a4:38:1f:52:30:
                    f4:64:9d:c0:14:ef:e0:3b:46:b9:fe:4e:f2:ed:92:
                    16:42:64:6c:cc:1d:14:ea:54:c5:d8:4d:2d:6e:25:
                    6d:b4:f1:34:7c:65:66:55:dd:c8:f8:92:45:18:c9:
                    da:dd:3d
                Exponent: 65537 (0x10001)
        X509v3 extensions:
            X509v3 Key Usage: critical
                Digital Signature, Key Encipherment
            X509v3 Basic Constraints: 
                CA:FALSE
            X509v3 Extended Key Usage: 
                TLS Web Server Authentication, TLS Web Client Authentication
            X509v3 Subject Key Identifier: 
                6A:C7:14:C4:A8:80:9E:89:3D:78:73:BE:CF:C4:08:10:C6:4B:F2:A0
            X509v3 Authority Key Identifier: 
                keyid:88:1E:9E:D5:63:E9:F4:D0:E1:03:F5:75:3A:91:DF:CF:90:74:62:9D

            Authority Information Access: 
                CA Issuers - URI:https://ca.xiexianbin.cn/tls-ca.cer

            X509v3 CRL Distribution Points: 

                Full Name:
                  URI:https://ca.xiexianbin.cn/tls-ca.crl

            X509v3 Subject Alternative Name: 
                DNS:xiexianbin.cn, DNS:www.xiexianbin.cn, DNS:*.xiexianbin.cn, DNS:80.xyz, DNS:*.80.xyz, DNS:kb.cx, DNS:*.kb.cx, DNS:dddd.dev, DNS:*.dddd.dev, DNS:9958.xyz, DNS:*.9958.xyz
    Signature Algorithm: sha256WithRSAEncryption
         67:7f:00:03:d7:36:44:39:01:07:49:77:9d:dc:ee:63:40:7a:
         89:6a:7c:49:48:97:c9:3d:f1:da:76:c0:7f:99:91:3d:4a:35:
         f5:ff:2a:fd:81:23:2b:c3:4d:92:9d:57:ba:35:ba:de:29:41:
         35:49:b3:d4:28:cb:cd:74:3d:4e:e0:67:c9:27:ef:b3:2a:a8:
         9d:14:36:08:12:7d:fb:cb:f4:cc:fb:ab:f1:1d:8f:04:dc:c2:
         4b:e3:cc:11:2f:87:c5:a4:27:8f:bf:c4:a1:22:b6:7f:e4:b7:
         25:ca:82:74:f8:5f:13:05:bd:b5:db:c0:7f:cb:d6:5c:c3:48:
         9e:be:b9:b9:f3:e4:a2:ed:ef:b8:5b:8e:b3:d3:5c:fe:f1:29:
         db:c5:7f:19:3a:46:97:50:c6:eb:9c:e7:1d:45:bf:c0:f5:0b:
         c2:e2:09:63:2b:33:8d:9a:f9:53:04:41:80:01:9d:02:e7:b1:
         73:d0:2f:37:d3:ba:80:38:37:0f:2d:8e:fd:f4:9a:08:ed:b0:
         39:de:5a:8f:74:88:5b:39:d4:c9:56:82:ea:9c:ef:46:1a:f1:
         cc:c9:ad:5d:ad:01:6d:cb:55:0a:f6:ea:76:d9:b9:67:fb:32:
         9a:9d:45:04:f6:99:40:e5:16:55:45:b2:23:af:80:a6:3b:b4:
         50:a0:fd:2b:0f:48:e0:b5:3a:9c:ce:c3:db:d8:d0:5a:16:9b:
         43:01:36:e0:9d:39:c3:08:e3:1a:0c:5c:f4:fe:e7:f2:50:c2:
         a1:6a:4b:ff:b1:cd:7b:01:73:a7:ed:56:7e:5f:d1:b7:93:c0:
         26:8d:0c:b8:1a:31:f8:6e:8f:83:ad:b8:2b:5a:cf:48:5a:c6:
         3f:90:20:49:7a:69:06:4b:bb:20:17:e6:05:76:30:fd:ec:22:
         48:a2:c5:ab:dc:77:20:9d:85:38:6e:5a:3a:58:05:30:37:d6:
         31:51:71:ce:0f:0b:e3:13:4b:f8:02:78:76:69:42:32:2e:b6:
         0f:10:55:61:57:54:ad:e6:06:a0:c3:c3:d4:1c:2d:32:e0:9b:
         c0:0d:62:9a:b5:04:5a:22:06:ba:88:95:b8:ee:72:16:f3:74:
         ef:07:92:c0:b5:de:50:69:f1:af:b0:b7:7c:94:5d:a9:5f:e8:
         85:e5:3c:85:f7:ee:2d:4e:0e:67:5a:b1:af:46:d3:8f:10:09:
         e0:25:53:1d:84:de:7d:f8:98:f4:3f:e6:f7:c2:70:a3:2f:43:
         04:65:f4:8d:ad:7b:67:e0:57:07:f2:53:96:f6:fa:cb:33:7a:
         0a:68:fd:30:03:b6:9f:48:65:72:89:7d:8b:89:d7:e3:56:93:
         7d:96:15:38:52:ee:2e:8c
-----BEGIN CERTIFICATE-----
MIIGeTCCBGGgAwIBAgIBAzANBgkqhkiG9w0BAQsFADBPMQswCQYDVQQGEwJDTjEN
MAsGA1UECgwEWCBDQTEaMBgGA1UECwwRd3d3LnhpZXhpYW5iaW4uY24xFTATBgNV
BAMMDFggVExTIENBIDFDMTAeFw0yMjAzMDYwOTAyNDBaFw0yNDA2MDgwOTAyNDBa
MCkxCzAJBgNVBAYTAkNOMRowGAYDVQQDDBF3d3cueGlleGlhbmJpbi5jbjCCAiIw
DQYJKoZIhvcNAQEBBQADggIPADCCAgoCggIBALK9vnrtMM7PjYycHVM4EAB8Keg2
s39V3jRg3PsYKhB/no8LmpCoTMugrjdBrCVzJUN7iD8zd4CQvd/lWdpjPVTP+4x8
SJzIlqBYoky59r2zb3+AUziPsC2GFHnIWFtG+SuzWrU7pWCaZ0LN5xqvzvuy5OT/
4vclLXB9R5pG90noeWZYHkgGuCqNMAIbfExwUKDuGa0/gzG/yw/v4bREaRcoZZOJ
giwPclfqx3agcpUC6Wck1WWQn1KENdlKG/AtyhMBxjqGWUVPqRh2F8vWbnDF/9m1
sPUmI1cs8FDMt+Cee/PyzJFIkoYKbU3DxeKatt+x5BkcTXUinI46pWy249lI4D+f
1IJJcE8SqFE+oxBxOoPiw50OEbKgQePvIIJBxqmSpUq40wxtw50I21WQ765vftdM
lZ1R1PUVFeaQBGXLip9imebLgt/gLpDXeyxEyAtDsUA0BEZq2QfeH7VH5s9aPmzc
DtsYB3JsOk6lnA6C8Ub1i7v/nMSxdChGWEo0k7ybuBp4T/iaPo9JnJOhrG+X7jLm
PadpW8/1zlf4uUad89dxkdzCvy5qRn97M7IU9SnMLHtktDXMpUE6cY3czYXNGEbY
ljeZu90sIKQ4H1Iw9GSdwBTv4DtGuf5O8u2SFkJkbMwdFOpUxdhNLW4lbbTxNHxl
ZlXdyPiSRRjJ2t09AgMBAAGjggGEMIIBgDAOBgNVHQ8BAf8EBAMCBaAwCQYDVR0T
BAIwADAdBgNVHSUEFjAUBggrBgEFBQcDAQYIKwYBBQUHAwIwHQYDVR0OBBYEFGrH
FMSogJ6JPXhzvs/ECBDGS/KgMB8GA1UdIwQYMBaAFIgentVj6fTQ4QP1dTqR38+Q
dGKdMD8GCCsGAQUFBwEBBDMwMTAvBggrBgEFBQcwAoYjaHR0cHM6Ly9jYS54aWV4
aWFuYmluLmNuL3Rscy1jYS5jZXIwNAYDVR0fBC0wKzApoCegJYYjaHR0cHM6Ly9j
YS54aWV4aWFuYmluLmNuL3Rscy1jYS5jcmwwgYwGA1UdEQSBhDCBgYINeGlleGlh
bmJpbi5jboIRd3d3LnhpZXhpYW5iaW4uY26CDyoueGlleGlhbmJpbi5jboIGODAu
eHl6gggqLjgwLnh5eoIFa2IuY3iCByoua2IuY3iCCGRkZGQuZGV2ggoqLmRkZGQu
ZGV2ggg5OTU4Lnh5eoIKKi45OTU4Lnh5ejANBgkqhkiG9w0BAQsFAAOCAgEAZ38A
A9c2RDkBB0l3ndzuY0B6iWp8SUiXyT3x2nbAf5mRPUo19f8q/YEjK8NNkp1XujW6
3ilBNUmz1CjLzXQ9TuBnySfvsyqonRQ2CBJ9+8v0zPur8R2PBNzCS+PMES+HxaQn
j7/EoSK2f+S3JcqCdPhfEwW9tdvAf8vWXMNInr65ufPkou3vuFuOs9Nc/vEp28V/
GTpGl1DG65znHUW/wPULwuIJYyszjZr5UwRBgAGdAuexc9AvN9O6gDg3Dy2O/fSa
CO2wOd5aj3SIWznUyVaC6pzvRhrxzMmtXa0BbctVCvbqdtm5Z/symp1FBPaZQOUW
VUWyI6+Apju0UKD9Kw9I4LU6nM7D29jQWhabQwE24J05wwjjGgxc9P7n8lDCoWpL
/7HNewFzp+1Wfl/Rt5PAJo0MuBox+G6Pg624K1rPSFrGP5AgSXppBku7IBfmBXYw
/ewiSKLFq9x3IJ2FOG5aOlgFMDfWMVFxzg8L4xNL+AJ4dmlCMi62DxBVYVdUreYG
oMPD1BwtMuCbwA1imrUEWiIGuoiVuO5yFvN07weSwLXeUGnxr7C3fJRdqV/oheU8
hffuLU4OZ1qxr0bTjxAJ4CVTHYTeffiY9D/m98Jwoy9DBGX0ja17Z+BXB/JTlvb6
yzN6Cmj9MAO2n0hlcol9i4nX41aTfZYVOFLuLow=
-----END CERTIFICATE-----
